target datalayout = "e-m:e-p270:32:32-p271:32:32-p272:64:64-i64:64-i128:128-f80:128-n8:16:32:64-S128"
target triple = "x86_64-unknown-linux-gnu"

%struct.QEMUIOVector = type { ptr, i32, %union.anon }
%union.anon = type { %struct.anon }
%struct.anon = type { i32, %struct.iovec }
%struct.iovec = type { ptr, i64 }
%struct.IDEState = type { ptr, i8, i32, i32, i32, i32, i32, i32, i32, i64, i32, i32, [512 x i8], i32, [21 x i8], [41 x i8], i64, i8, i8, i32, i8, i8, i8, i8, i8, i8, i8, i8, i8, i8, i8, i8, i8, ptr, [9 x i8], %struct.unreported_events, i8, i8, i8, i8, i8, i32, i32, i32, i32, i32, i32, %struct.BlockAcctCookie, ptr, %struct.QEMUIOVector, %struct.anon.1, i64, i32, %struct.QEMUSGList, i32, ptr, ptr, ptr, ptr, i32, i32, i32, i8, ptr, i32, i8, i32, ptr, i32, i32, i8, i8, i32, i8, ptr, i32 }
%struct.unreported_events = type { i8, i8 }
%struct.BlockAcctCookie = type { i64, i64, i32 }
%struct.anon.1 = type { ptr }
%struct.QEMUSGList = type { ptr, i32, i32, i64, ptr, ptr }

; Function Attrs: nounwind sspstrong uwtable
define internal void @ide_cmd_lba48_transform(ptr noundef %s, i32 noundef %lba48) #0 {
entry:
  %s.addr = alloca ptr, align 8
  %lba48.addr = alloca i32, align 4
  %lo = alloca i32, align 4
  %hi = alloca i32, align 4
  store ptr %s, ptr %s.addr, align 8
  store i32 %lba48, ptr %lba48.addr, align 4
  %0 = load i32, ptr %lba48.addr, align 4
  %conv = trunc i32 %0 to i8
  %1 = load ptr, ptr %s.addr, align 8
  %lba481 = getelementptr inbounds %struct.IDEState, ptr %1, i32 0, i32 32
  store i8 %conv, ptr %lba481, align 4
  %2 = load ptr, ptr %s.addr, align 8
  %lba482 = getelementptr inbounds %struct.IDEState, ptr %2, i32 0, i32 32
  %3 = load i8, ptr %lba482, align 4
  %tobool = icmp ne i8 %3, 0
  br i1 %tobool, label %if.else, label %if.then

if.then:                                          ; preds = %entry
  %4 = load ptr, ptr %s.addr, align 8
  %nsector = getelementptr inbounds %struct.IDEState, ptr %4, i32 0, i32 19
  %5 = load i32, ptr %nsector, align 4
  %tobool3 = icmp ne i32 %5, 0
  br i1 %tobool3, label %if.end, label %if.then4

if.then4:                                         ; preds = %if.then
  %6 = load ptr, ptr %s.addr, align 8
  %nsector5 = getelementptr inbounds %struct.IDEState, ptr %6, i32 0, i32 19
  store i32 256, ptr %nsector5, align 4
  br label %if.end

if.end:                                           ; preds = %if.then4, %if.then
  br label %if.end17

if.else:                                          ; preds = %entry
  %7 = load ptr, ptr %s.addr, align 8
  %nsector6 = getelementptr inbounds %struct.IDEState, ptr %7, i32 0, i32 19
  %8 = load i32, ptr %nsector6, align 4
  %tobool7 = icmp ne i32 %8, 0
  br i1 %tobool7, label %if.else11, label %land.lhs.true

land.lhs.true:                                    ; preds = %if.else
  %9 = load ptr, ptr %s.addr, align 8
  %hob_nsector = getelementptr inbounds %struct.IDEState, ptr %9, i32 0, i32 24
  %10 = load i8, ptr %hob_nsector, align 4
  %tobool8 = icmp ne i8 %10, 0
  br i1 %tobool8, label %if.else11, label %if.then9

if.then9:                                         ; preds = %land.lhs.true
  %11 = load ptr, ptr %s.addr, align 8
  %nsector10 = getelementptr inbounds %struct.IDEState, ptr %11, i32 0, i32 19
  store i32 65536, ptr %nsector10, align 4
  br label %if.end16

if.else11:                                        ; preds = %land.lhs.true, %if.else
  %12 = load ptr, ptr %s.addr, align 8
  %nsector12 = getelementptr inbounds %struct.IDEState, ptr %12, i32 0, i32 19
  %13 = load i32, ptr %nsector12, align 4
  store i32 %13, ptr %lo, align 4
  %14 = load ptr, ptr %s.addr, align 8
  %hob_nsector13 = getelementptr inbounds %struct.IDEState, ptr %14, i32 0, i32 24
  %15 = load i8, ptr %hob_nsector13, align 4
  %conv14 = zext i8 %15 to i32
  store i32 %conv14, ptr %hi, align 4
  %16 = load i32, ptr %hi, align 4
  %shl = shl i32 %16, 8
  %17 = load i32, ptr %lo, align 4
  %or = or i32 %shl, %17
  %18 = load ptr, ptr %s.addr, align 8
  %nsector15 = getelementptr inbounds %struct.IDEState, ptr %18, i32 0, i32 19
  store i32 %or, ptr %nsector15, align 4
  br label %if.end16

if.end16:                                         ; preds = %if.else11, %if.then9
  br label %if.end17

if.end17:                                         ; preds = %if.end16, %if.end
  ret void
}

; Function Attrs: nounwind sspstrong uwtable
define internal zeroext i1 @cmd_verify(ptr noundef %s, i8 noundef zeroext %cmd) #0 {
entry:
  %s.addr = alloca ptr, align 8
  %cmd.addr = alloca i8, align 1
  %lba48 = alloca i8, align 1
  store ptr %s, ptr %s.addr, align 8
  store i8 %cmd, ptr %cmd.addr, align 1
  %0 = load i8, ptr %cmd.addr, align 1
  %conv = zext i8 %0 to i32
  %cmp = icmp eq i32 %conv, 66
  %frombool = zext i1 %cmp to i8
  store i8 %frombool, ptr %lba48, align 1
  %1 = load ptr, ptr %s.addr, align 8
  %2 = load i8, ptr %lba48, align 1
  %tobool = trunc i8 %2 to i1
  %conv2 = zext i1 %tobool to i32
  call void @ide_cmd_lba48_transform(ptr noundef %1, i32 noundef %conv2)
  ret i1 true
}