; Function Attrs: mustprogress nofree norecurse nosync nounwind sspstrong willreturn memory(argmem: readwrite) uwtable
define internal noundef zeroext i1 @cmd_verify(ptr noundef captures(none) initializes((668, 669)) %s, i8 noundef zeroext %cmd) #3 {
entry:
  %cmp = icmp eq i8 %cmd, 66
  %conv.i = zext i1 %cmp to i8
  %lba481.i = getelementptr inbounds nuw i8, ptr %s, i64 668
  store i8 %conv.i, ptr %lba481.i, align 4
  %nsector.i = getelementptr inbounds nuw i8, ptr %s, i64 652
  %0 = load i32, ptr %nsector.i, align 4
  %tobool3.not.i = icmp eq i32 %0, 0
  br i1 %cmp, label %if.else.i, label %if.then.i

if.then.i:                                        ; preds = %entry
  br i1 %tobool3.not.i, label %if.end17.sink.split.i, label %ide_cmd_lba48_transform.exit

if.else.i:                                        ; preds = %entry
  %hob_nsector.i = getelementptr inbounds nuw i8, ptr %s, i64 660
  %1 = load i8, ptr %hob_nsector.i, align 4
  %tobool8.not.i = icmp eq i8 %1, 0
  %or.cond.i = select i1 %tobool3.not.i, i1 %tobool8.not.i, i1 false
  br i1 %or.cond.i, label %if.end17.sink.split.i, label %if.else11.i

if.else11.i:                                      ; preds = %if.else.i
  %conv14.i = zext i8 %1 to i32
  %shl.i = shl nuw nsw i32 %conv14.i, 8
  %or.i = or i32 %shl.i, %0
  br label %if.end17.sink.split.i

if.end17.sink.split.i:                            ; preds = %if.else11.i, %if.else.i, %if.then.i
  %.sink.i = phi i32 [ %or.i, %if.else11.i ], [ 256, %if.then.i ], [ 65536, %if.else.i ]
  store i32 %.sink.i, ptr %nsector.i, align 4
  br label %ide_cmd_lba48_transform.exit

ide_cmd_lba48_transform.exit:                     ; preds = %if.then.i, %if.end17.sink.split.i
  ret i1 true
}